target datalayout = "e-m:e-p270:32:32-p271:32:32-p272:64:64-i64:64-i128:128-f80:128-n8:16:32:64-S128"
target triple = "x86_64-pc-linux-gnu"

; Function Attrs: null_pointer_is_valid sspstrong uwtable
define hidden ptr @bytes_to_dfilter_repr(ptr noundef %0, ptr noundef %1, i64 noundef %2) #0 {
  %4 = alloca ptr, align 8
  %5 = alloca ptr, align 8
  %6 = alloca i64, align 8
  %7 = alloca ptr, align 8
  %8 = alloca i64, align 8
  %9 = alloca ptr, align 8
  store ptr %0, ptr %4, align 8
  store ptr %1, ptr %5, align 8
  store i64 %2, ptr %6, align 8
  call void @llvm.lifetime.start.p0(i64 8, ptr %7) #9
  call void @llvm.lifetime.start.p0(i64 8, ptr %8) #9
  call void @llvm.lifetime.start.p0(i64 8, ptr %9) #9
  %10 = load i64, ptr %6, align 8
  %11 = mul i64 %10, 3
  %12 = add i64 %11, 1
  store i64 %12, ptr %8, align 8
  %13 = load ptr, ptr %4, align 8
  %14 = load i64, ptr %8, align 8
  %15 = call noalias ptr @wmem_alloc(ptr noundef %13, i64 noundef %14) #10
  store ptr %15, ptr %7, align 8
  %16 = load ptr, ptr %7, align 8
  %17 = load ptr, ptr %5, align 8
  %18 = load i64, ptr %6, align 8
  %19 = call ptr @bytes_to_hexstr_punct(ptr noundef %16, ptr noundef %17, i64 noundef %18, i8 noundef signext 58)
  store ptr %19, ptr %9, align 8
  %20 = load i64, ptr %6, align 8
  %21 = icmp eq i64 %20, 1
  br i1 %21, label %22, label %25

22:                                               ; preds = %3
  %23 = load ptr, ptr %9, align 8
  %24 = getelementptr i8, ptr %23, i32 1
  store ptr %24, ptr %9, align 8
  store i8 58, ptr %23, align 1
  br label %25

25:                                               ; preds = %22, %3
  %26 = load ptr, ptr %9, align 8
  store i8 0, ptr %26, align 1
  %27 = load ptr, ptr %7, align 8
  call void @llvm.lifetime.end.p0(i64 8, ptr %9) #9
  call void @llvm.lifetime.end.p0(i64 8, ptr %8) #9
  call void @llvm.lifetime.end.p0(i64 8, ptr %7) #9
  ret ptr %27
}