; Function Attrs: null_pointer_is_valid sspstrong uwtable
define hidden noundef ptr @bytes_to_dfilter_repr(ptr noundef %0, ptr noundef %1, i64 noundef %2) local_unnamed_addr #0 {
  %4 = mul i64 %2, 3
  %5 = add i64 %4, 1
  %6 = tail call noalias ptr @wmem_alloc(ptr noundef %0, i64 noundef %5) #9
  %7 = tail call ptr @bytes_to_hexstr_punct(ptr noundef %6, ptr noundef %1, i64 noundef %2, i8 noundef signext 58)
  %8 = icmp eq i64 %2, 1
  br i1 %8, label %9, label %11

9:                                                ; preds = %3
  %10 = getelementptr i8, ptr %7, i64 1
  store i8 58, ptr %7, align 1
  br label %11

11:                                               ; preds = %9, %3
  %.0 = phi ptr [ %10, %9 ], [ %7, %3 ]
  store i8 0, ptr %.0, align 1
  ret ptr %6
}